; ModuleID = '27/2098.c'
source_filename = "27/2098.c"
target datalayout = "e-m:e-p270:32:32-p271:32:32-p272:64:64-i64:64-f80:128-n8:16:32:64-S128"
target triple = "x86_64-pc-linux-gnu"

@.str = private unnamed_addr constant [3 x i8] c"%d\00", align 1
@.str.1 = private unnamed_addr constant [10 x i8] c"%lf%lf%lf\00", align 1
@.str.2 = private unnamed_addr constant [10 x i8] c"x1=%.5lf;\00", align 1
@.str.3 = private unnamed_addr constant [10 x i8] c"x2=%.5lf\0A\00", align 1
@.str.4 = private unnamed_addr constant [13 x i8] c"x1=x2=%.5lf\0A\00", align 1
@.str.5 = private unnamed_addr constant [17 x i8] c"x1=%.5lf+%.5lfi;\00", align 1
@.str.6 = private unnamed_addr constant [16 x i8] c"x2=%.5lf%.5lfi\0A\00", align 1
@.str.7 = private unnamed_addr constant [16 x i8] c"x1=%.5lf%.5lfi;\00", align 1
@.str.8 = private unnamed_addr constant [17 x i8] c"x2=%.5lf+%.5lfi\0A\00", align 1

; Function Attrs: noinline nounwind uwtable
define dso_local i32 @main() #0 {
  %1 = alloca i32, align 4
  %2 = alloca i32, align 4
  %3 = alloca i32, align 4
  %4 = alloca [30 x double], align 16
  %5 = alloca [30 x double], align 16
  %6 = alloca [30 x double], align 16
  %7 = alloca double, align 8
  %8 = alloca double, align 8
  %9 = alloca double, align 8
  %10 = alloca double, align 8
  %11 = alloca double, align 8
  store i32 0, i32* %1, align 4
  %12 = call i32 (i8*, ...) @__isoc99_scanf(i8* getelementptr inbounds ([3 x i8], [3 x i8]* @.str, i64 0, i64 0), i32* %2)
  store i32 0, i32* %3, align 4
  br label %13

13:                                               ; preds = %28, %0
  %14 = load i32, i32* %3, align 4
  %15 = load i32, i32* %2, align 4
  %16 = icmp slt i32 %14, %15
  br i1 %16, label %17, label %31

17:                                               ; preds = %13
  %18 = load i32, i32* %3, align 4
  %19 = sext i32 %18 to i64
  %20 = getelementptr inbounds [30 x double], [30 x double]* %4, i64 0, i64 %19
  %21 = load i32, i32* %3, align 4
  %22 = sext i32 %21 to i64
  %23 = getelementptr inbounds [30 x double], [30 x double]* %5, i64 0, i64 %22
  %24 = load i32, i32* %3, align 4
  %25 = sext i32 %24 to i64
  %26 = getelementptr inbounds [30 x double], [30 x double]* %6, i64 0, i64 %25
  %27 = call i32 (i8*, ...) @__isoc99_scanf(i8* getelementptr inbounds ([10 x i8], [10 x i8]* @.str.1, i64 0, i64 0), double* %20, double* %23, double* %26)
  br label %28

28:                                               ; preds = %17
  %29 = load i32, i32* %3, align 4
  %30 = add nsw i32 %29, 1
  store i32 %30, i32* %3, align 4
  br label %13

31:                                               ; preds = %13
  store i32 0, i32* %3, align 4
  br label %32

32:                                               ; preds = %253, %31
  %33 = load i32, i32* %3, align 4
  %34 = load i32, i32* %2, align 4
  %35 = icmp slt i32 %33, %34
  br i1 %35, label %36, label %256

36:                                               ; preds = %32
  %37 = load i32, i32* %3, align 4
  %38 = sext i32 %37 to i64
  %39 = getelementptr inbounds [30 x double], [30 x double]* %5, i64 0, i64 %38
  %40 = load double, double* %39, align 8
  %41 = load i32, i32* %3, align 4
  %42 = sext i32 %41 to i64
  %43 = getelementptr inbounds [30 x double], [30 x double]* %5, i64 0, i64 %42
  %44 = load double, double* %43, align 8
  %45 = fmul double %40, %44
  %46 = load i32, i32* %3, align 4
  %47 = sext i32 %46 to i64
  %48 = getelementptr inbounds [30 x double], [30 x double]* %4, i64 0, i64 %47
  %49 = load double, double* %48, align 8
  %50 = fmul double 4.000000e+00, %49
  %51 = load i32, i32* %3, align 4
  %52 = sext i32 %51 to i64
  %53 = getelementptr inbounds [30 x double], [30 x double]* %6, i64 0, i64 %52
  %54 = load double, double* %53, align 8
  %55 = fmul double %50, %54
  %56 = fsub double %45, %55
  %57 = fcmp ogt double %56, 0.000000e+00
  br i1 %57, label %58, label %129

58:                                               ; preds = %36
  %59 = load i32, i32* %3, align 4
  %60 = sext i32 %59 to i64
  %61 = getelementptr inbounds [30 x double], [30 x double]* %5, i64 0, i64 %60
  %62 = load double, double* %61, align 8
  %63 = fneg double %62
  %64 = load i32, i32* %3, align 4
  %65 = sext i32 %64 to i64
  %66 = getelementptr inbounds [30 x double], [30 x double]* %5, i64 0, i64 %65
  %67 = load double, double* %66, align 8
  %68 = load i32, i32* %3, align 4
  %69 = sext i32 %68 to i64
  %70 = getelementptr inbounds [30 x double], [30 x double]* %5, i64 0, i64 %69
  %71 = load double, double* %70, align 8
  %72 = fmul double %67, %71
  %73 = load i32, i32* %3, align 4
  %74 = sext i32 %73 to i64
  %75 = getelementptr inbounds [30 x double], [30 x double]* %4, i64 0, i64 %74
  %76 = load double, double* %75, align 8
  %77 = fmul double 4.000000e+00, %76
  %78 = load i32, i32* %3, align 4
  %79 = sext i32 %78 to i64
  %80 = getelementptr inbounds [30 x double], [30 x double]* %6, i64 0, i64 %79
  %81 = load double, double* %80, align 8
  %82 = fmul double %77, %81
  %83 = fsub double %72, %82
  %84 = call double @sqrt(double %83) #3
  %85 = fadd double %63, %84
  %86 = load i32, i32* %3, align 4
  %87 = sext i32 %86 to i64
  %88 = getelementptr inbounds [30 x double], [30 x double]* %4, i64 0, i64 %87
  %89 = load double, double* %88, align 8
  %90 = fmul double 2.000000e+00, %89
  %91 = fdiv double %85, %90
  store double %91, double* %7, align 8
  %92 = load i32, i32* %3, align 4
  %93 = sext i32 %92 to i64
  %94 = getelementptr inbounds [30 x double], [30 x double]* %5, i64 0, i64 %93
  %95 = load double, double* %94, align 8
  %96 = fneg double %95
  %97 = load i32, i32* %3, align 4
  %98 = sext i32 %97 to i64
  %99 = getelementptr inbounds [30 x double], [30 x double]* %5, i64 0, i64 %98
  %100 = load double, double* %99, align 8
  %101 = load i32, i32* %3, align 4
  %102 = sext i32 %101 to i64
  %103 = getelementptr inbounds [30 x double], [30 x double]* %5, i64 0, i64 %102
  %104 = load double, double* %103, align 8
  %105 = fmul double %100, %104
  %106 = load i32, i32* %3, align 4
  %107 = sext i32 %106 to i64
  %108 = getelementptr inbounds [30 x double], [30 x double]* %4, i64 0, i64 %107
  %109 = load double, double* %108, align 8
  %110 = fmul double 4.000000e+00, %109
  %111 = load i32, i32* %3, align 4
  %112 = sext i32 %111 to i64
  %113 = getelementptr inbounds [30 x double], [30 x double]* %6, i64 0, i64 %112
  %114 = load double, double* %113, align 8
  %115 = fmul double %110, %114
  %116 = fsub double %105, %115
  %117 = call double @sqrt(double %116) #3
  %118 = fsub double %96, %117
  %119 = load i32, i32* %3, align 4
  %120 = sext i32 %119 to i64
  %121 = getelementptr inbounds [30 x double], [30 x double]* %4, i64 0, i64 %120
  %122 = load double, double* %121, align 8
  %123 = fmul double 2.000000e+00, %122
  %124 = fdiv double %118, %123
  store double %124, double* %8, align 8
  %125 = load double, double* %7, align 8
  %126 = call i32 (i8*, ...) @printf(i8* getelementptr inbounds ([10 x i8], [10 x i8]* @.str.2, i64 0, i64 0), double %125)
  %127 = load double, double* %8, align 8
  %128 = call i32 (i8*, ...) @printf(i8* getelementptr inbounds ([10 x i8], [10 x i8]* @.str.3, i64 0, i64 0), double %127)
  br label %252

129:                                              ; preds = %36
  %130 = load i32, i32* %3, align 4
  %131 = sext i32 %130 to i64
  %132 = getelementptr inbounds [30 x double], [30 x double]* %5, i64 0, i64 %131
  %133 = load double, double* %132, align 8
  %134 = load i32, i32* %3, align 4
  %135 = sext i32 %134 to i64
  %136 = getelementptr inbounds [30 x double], [30 x double]* %5, i64 0, i64 %135
  %137 = load double, double* %136, align 8
  %138 = fmul double %133, %137
  %139 = load i32, i32* %3, align 4
  %140 = sext i32 %139 to i64
  %141 = getelementptr inbounds [30 x double], [30 x double]* %4, i64 0, i64 %140
  %142 = load double, double* %141, align 8
  %143 = fmul double 4.000000e+00, %142
  %144 = load i32, i32* %3, align 4
  %145 = sext i32 %144 to i64
  %146 = getelementptr inbounds [30 x double], [30 x double]* %6, i64 0, i64 %145
  %147 = load double, double* %146, align 8
  %148 = fmul double %143, %147
  %149 = fsub double %138, %148
  %150 = fcmp oeq double %149, 0.000000e+00
  br i1 %150, label %151, label %165

151:                                              ; preds = %129
  %152 = load i32, i32* %3, align 4
  %153 = sext i32 %152 to i64
  %154 = getelementptr inbounds [30 x double], [30 x double]* %5, i64 0, i64 %153
  %155 = load double, double* %154, align 8
  %156 = fneg double %155
  %157 = load i32, i32* %3, align 4
  %158 = sext i32 %157 to i64
  %159 = getelementptr inbounds [30 x double], [30 x double]* %4, i64 0, i64 %158
  %160 = load double, double* %159, align 8
  %161 = fmul double 2.000000e+00, %160
  %162 = fdiv double %156, %161
  store double %162, double* %8, align 8
  store double %162, double* %7, align 8
  %163 = load double, double* %7, align 8
  %164 = call i32 (i8*, ...) @printf(i8* getelementptr inbounds ([13 x i8], [13 x i8]* @.str.4, i64 0, i64 0), double %163)
  br label %251

165:                                              ; preds = %129
  %166 = load i32, i32* %3, align 4
  %167 = sext i32 %166 to i64
  %168 = getelementptr inbounds [30 x double], [30 x double]* %5, i64 0, i64 %167
  %169 = load double, double* %168, align 8
  %170 = fneg double %169
  %171 = load i32, i32* %3, align 4
  %172 = sext i32 %171 to i64
  %173 = getelementptr inbounds [30 x double], [30 x double]* %5, i64 0, i64 %172
  %174 = load double, double* %173, align 8
  %175 = fmul double %170, %174
  %176 = load i32, i32* %3, align 4
  %177 = sext i32 %176 to i64
  %178 = getelementptr inbounds [30 x double], [30 x double]* %4, i64 0, i64 %177
  %179 = load double, double* %178, align 8
  %180 = fmul double 4.000000e+00, %179
  %181 = load i32, i32* %3, align 4
  %182 = sext i32 %181 to i64
  %183 = getelementptr inbounds [30 x double], [30 x double]* %6, i64 0, i64 %182
  %184 = load double, double* %183, align 8
  %185 = fmul double %180, %184
  %186 = fadd double %175, %185
  %187 = call double @sqrt(double %186) #3
  %188 = load i32, i32* %3, align 4
  %189 = sext i32 %188 to i64
  %190 = getelementptr inbounds [30 x double], [30 x double]* %4, i64 0, i64 %189
  %191 = load double, double* %190, align 8
  %192 = fmul double 2.000000e+00, %191
  %193 = fdiv double %187, %192
  store double %193, double* %9, align 8
  %194 = load i32, i32* %3, align 4
  %195 = sext i32 %194 to i64
  %196 = getelementptr inbounds [30 x double], [30 x double]* %5, i64 0, i64 %195
  %197 = load double, double* %196, align 8
  %198 = fneg double %197
  %199 = load i32, i32* %3, align 4
  %200 = sext i32 %199 to i64
  %201 = getelementptr inbounds [30 x double], [30 x double]* %5, i64 0, i64 %200
  %202 = load double, double* %201, align 8
  %203 = fmul double %198, %202
  %204 = load i32, i32* %3, align 4
  %205 = sext i32 %204 to i64
  %206 = getelementptr inbounds [30 x double], [30 x double]* %4, i64 0, i64 %205
  %207 = load double, double* %206, align 8
  %208 = fmul double 4.000000e+00, %207
  %209 = load i32, i32* %3, align 4
  %210 = sext i32 %209 to i64
  %211 = getelementptr inbounds [30 x double], [30 x double]* %6, i64 0, i64 %210
  %212 = load double, double* %211, align 8
  %213 = fmul double %208, %212
  %214 = fadd double %203, %213
  %215 = call double @sqrt(double %214) #3
  %216 = load i32, i32* %3, align 4
  %217 = sext i32 %216 to i64
  %218 = getelementptr inbounds [30 x double], [30 x double]* %4, i64 0, i64 %217
  %219 = load double, double* %218, align 8
  %220 = fmul double 2.000000e+00, %219
  %221 = fdiv double %215, %220
  %222 = fneg double %221
  store double %222, double* %10, align 8
  %223 = load i32, i32* %3, align 4
  %224 = sext i32 %223 to i64
  %225 = getelementptr inbounds [30 x double], [30 x double]* %5, i64 0, i64 %224
  %226 = load double, double* %225, align 8
  %227 = fneg double %226
  %228 = load i32, i32* %3, align 4
  %229 = sext i32 %228 to i64
  %230 = getelementptr inbounds [30 x double], [30 x double]* %4, i64 0, i64 %229
  %231 = load double, double* %230, align 8
  %232 = fmul double 2.000000e+00, %231
  %233 = fdiv double %227, %232
  store double %233, double* %11, align 8
  %234 = getelementptr inbounds [30 x double], [30 x double]* %4, i64 0, i64 0
  %235 = icmp ugt double* %234, null
  br i1 %235, label %236, label %243

236:                                              ; preds = %165
  %237 = load double, double* %11, align 8
  %238 = load double, double* %9, align 8
  %239 = call i32 (i8*, ...) @printf(i8* getelementptr inbounds ([17 x i8], [17 x i8]* @.str.5, i64 0, i64 0), double %237, double %238)
  %240 = load double, double* %11, align 8
  %241 = load double, double* %10, align 8
  %242 = call i32 (i8*, ...) @printf(i8* getelementptr inbounds ([16 x i8], [16 x i8]* @.str.6, i64 0, i64 0), double %240, double %241)
  br label %250

243:                                              ; preds = %165
  %244 = load double, double* %11, align 8
  %245 = load double, double* %9, align 8
  %246 = call i32 (i8*, ...) @printf(i8* getelementptr inbounds ([16 x i8], [16 x i8]* @.str.7, i64 0, i64 0), double %244, double %245)
  %247 = load double, double* %11, align 8
  %248 = load double, double* %10, align 8
  %249 = call i32 (i8*, ...) @printf(i8* getelementptr inbounds ([17 x i8], [17 x i8]* @.str.8, i64 0, i64 0), double %247, double %248)
  br label %250

250:                                              ; preds = %243, %236
  br label %251

251:                                              ; preds = %250, %151
  br label %252

252:                                              ; preds = %251, %58
  br label %253

253:                                              ; preds = %252
  %254 = load i32, i32* %3, align 4
  %255 = add nsw i32 %254, 1
  store i32 %255, i32* %3, align 4
  br label %32

256:                                              ; preds = %32
  ret i32 0
}

declare dso_local i32 @__isoc99_scanf(i8*, ...) #1

; Function Attrs: nounwind
declare dso_local double @sqrt(double) #2

declare dso_local i32 @printf(i8*, ...) #1


!llvm.module.flags = !{!0}
!llvm.ident = !{!1}

!0 = !{i32 1, !"wchar_size", i32 4}
!1 = !{!"clang version 10.0.0-4ubuntu1 "}
